; Function Attrs: mustprogress uwtable
define noundef zeroext i1 @_ZNK3net12QuicServerIdltERKS0_(ptr noundef nonnull align 8 dereferenceable(44) %0, ptr noundef nonnull align 8 dereferenceable(44) %1) local_unnamed_addr #0 align 2 personality ptr @__gxx_personality_v0 {
  %3 = alloca %"class.std::tuple", align 8
  %4 = alloca %"class.std::tuple", align 8
  call void @llvm.lifetime.start.p0(i64 16, ptr nonnull %3) #14
  %5 = getelementptr inbounds nuw i8, ptr %0, i64 40
  store ptr %5, ptr %3, align 8, !tbaa !21, !alias.scope !22
  %6 = getelementptr inbounds nuw i8, ptr %3, i64 8
  store ptr %0, ptr %6, align 8, !tbaa !25, !alias.scope !22
  call void @llvm.lifetime.start.p0(i64 16, ptr nonnull %4) #14
  %7 = getelementptr inbounds nuw i8, ptr %1, i64 40
  store ptr %7, ptr %4, align 8, !tbaa !21, !alias.scope !27
  %8 = getelementptr inbounds nuw i8, ptr %4, i64 8
  store ptr %1, ptr %8, align 8, !tbaa !25, !alias.scope !27
  %9 = call noundef zeroext i1 @_ZNSt15__tuple_compareISt5tupleIJRKN3net12HostPortPairERKNS1_11PrivacyModeEEES8_Lm0ELm2EE6__lessERKS8_SB_(ptr noundef nonnull align 8 dereferenceable(16) %3, ptr noundef nonnull align 8 dereferenceable(16) %4)
  call void @llvm.lifetime.end.p0(i64 16, ptr nonnull %4) #14
  call void @llvm.lifetime.end.p0(i64 16, ptr nonnull %3) #14
  ret i1 %9
}